; Function Attrs: mustprogress nofree norecurse nosync nounwind willreturn memory(read, inaccessiblemem: none) uwtable
define hidden noundef ptr @_ZNK28ShenandoahRefProcThreadLocal20discovered_list_headI9narrowOopEEP7oopDescv(ptr nocapture noundef nonnull readonly align 8 dereferenceable(136) %0) local_unnamed_addr #3 align 2 {
  %2 = load i32, ptr %0, align 8
  %3 = icmp eq i32 %2, 0
  %4 = load ptr, ptr @_ZN14CompressedOops11_narrow_oopE, align 8
  %5 = ptrtoint ptr %4 to i64
  %6 = zext i32 %2 to i64
  %7 = load i32, ptr getelementptr inbounds (i8, ptr @_ZN14CompressedOops11_narrow_oopE, i64 8), align 8
  %8 = zext nneg i32 %7 to i64
  %9 = shl i64 %6, %8
  %10 = add i64 %9, %5
  %11 = inttoptr i64 %10 to ptr
  %12 = select i1 %3, ptr null, ptr %11
  ret ptr %12
}